target datalayout = "e-m:e-p270:32:32-p271:32:32-p272:64:64-i64:64-i128:128-f80:128-n8:16:32:64-S128"
target triple = "x86_64-pc-linux-gnu"

%struct.Ivy_Cut_t_ = type { i32, i16, i16, [6 x i32], i32 }

@.str.6 = private unnamed_addr constant [7 x i8] c"%d : {\00", align 1
@.str.7 = private unnamed_addr constant [4 x i8] c" %d\00", align 1
@.str.8 = private unnamed_addr constant [4 x i8] c" }\0A\00", align 1

; Function Attrs: nounwind uwtable
define void @Ivy_NodePrintCut(ptr noundef %0) #0 {
  %2 = alloca ptr, align 8
  %3 = alloca i32, align 4
  store ptr %0, ptr %2, align 8
  %4 = load ptr, ptr %2, align 8
  %5 = getelementptr inbounds %struct.Ivy_Cut_t_, ptr %4, i32 0, i32 1
  %6 = load i16, ptr %5, align 4
  %7 = sext i16 %6 to i32
  %8 = call i32 (ptr, ...) @printf(ptr noundef @.str.6, i32 noundef %7)
  store i32 0, ptr %3, align 4
  br label %9

9:                                                ; preds = %24, %1
  %10 = load i32, ptr %3, align 4
  %11 = load ptr, ptr %2, align 8
  %12 = getelementptr inbounds %struct.Ivy_Cut_t_, ptr %11, i32 0, i32 1
  %13 = load i16, ptr %12, align 4
  %14 = sext i16 %13 to i32
  %15 = icmp slt i32 %10, %14
  br i1 %15, label %16, label %27

16:                                               ; preds = %9
  %17 = load ptr, ptr %2, align 8
  %18 = getelementptr inbounds %struct.Ivy_Cut_t_, ptr %17, i32 0, i32 3
  %19 = load i32, ptr %3, align 4
  %20 = sext i32 %19 to i64
  %21 = getelementptr inbounds [6 x i32], ptr %18, i64 0, i64 %20
  %22 = load i32, ptr %21, align 4
  %23 = call i32 (ptr, ...) @printf(ptr noundef @.str.7, i32 noundef %22)
  br label %24

24:                                               ; preds = %16
  %25 = load i32, ptr %3, align 4
  %26 = add nsw i32 %25, 1
  store i32 %26, ptr %3, align 4
  br label %9, !llvm.loop !29

27:                                               ; preds = %9
  %28 = call i32 (ptr, ...) @printf(ptr noundef @.str.8)
  ret void
}